; Function Attrs: mustprogress uwtable
define internal fastcc void @_ZL15printRealVectorIfEvP8_IO_FILEiPKcPKT_ib(ptr noundef %0, i32 noundef %1, ptr noundef %2, ptr noundef %3, i32 noundef %4, i1 noundef zeroext %5) unnamed_addr #0 {
  %7 = tail call noundef zeroext i1 @_Z9availableP8_IO_FILEPKviPKc(ptr noundef %0, ptr noundef %3, i32 noundef %1, ptr noundef %2)
  br i1 %7, label %8, label %.loopexit

8:                                                ; preds = %6
  %9 = tail call noundef i32 @_Z10pr_title_nP8_IO_FILEiPKci(ptr noundef %0, i32 noundef %1, ptr noundef %2, i32 noundef %4)
  %10 = icmp sgt i32 %4, 0
  br i1 %10, label %.lr.ph, label %.loopexit

.lr.ph:                                           ; preds = %8
  %wide.trip.count24 = zext nneg i32 %4 to i64
  br i1 %5, label %.lr.ph.split.us, label %.lr.ph.split

.lr.ph.split.us:                                  ; preds = %.lr.ph, %.lr.ph.split.us
  %indvars.iv21 = phi i64 [ %indvars.iv.next22, %.lr.ph.split.us ], [ 0, %.lr.ph ]
  %11 = tail call noundef i32 @_Z9pr_indentP8_IO_FILEi(ptr noundef %0, i32 noundef %9)
  %12 = getelementptr inbounds float, ptr %3, i64 %indvars.iv21
  %13 = load float, ptr %12, align 4
  %14 = fpext float %13 to double
  %15 = trunc nuw nsw i64 %indvars.iv21 to i32
  %16 = tail call i32 (ptr, ptr, ...) @fprintf(ptr noundef %0, ptr noundef nonnull @.str.6, ptr noundef %2, i32 noundef %15, double noundef %14) #6
  %indvars.iv.next22 = add nuw nsw i64 %indvars.iv21, 1
  %exitcond25.not = icmp eq i64 %indvars.iv.next22, %wide.trip.count24
  br i1 %exitcond25.not, label %.loopexit, label %.lr.ph.split.us, !llvm.loop !12

.lr.ph.split:                                     ; preds = %.lr.ph, %.lr.ph.split
  %indvars.iv = phi i64 [ %indvars.iv.next, %.lr.ph.split ], [ 0, %.lr.ph ]
  %17 = tail call noundef i32 @_Z9pr_indentP8_IO_FILEi(ptr noundef %0, i32 noundef %9)
  %18 = getelementptr inbounds float, ptr %3, i64 %indvars.iv
  %19 = load float, ptr %18, align 4
  %20 = fpext float %19 to double
  %21 = tail call i32 (ptr, ptr, ...) @fprintf(ptr noundef %0, ptr noundef nonnull @.str.6, ptr noundef %2, i32 noundef -1, double noundef %20) #6
  %indvars.iv.next = add nuw nsw i64 %indvars.iv, 1
  %exitcond.not = icmp eq i64 %indvars.iv.next, %wide.trip.count24
  br i1 %exitcond.not, label %.loopexit, label %.lr.ph.split, !llvm.loop !12

.loopexit:                                        ; preds = %.lr.ph.split, %.lr.ph.split.us, %8, %6
  ret void
}